; Function Attrs: mustprogress nounwind uwtable
define internal void @_ZN12_GLOBAL__N_123EngineParamTestTemplateINS_10TestParamsEED2Ev(ptr noundef nonnull align 8 dereferenceable(336) %this) unnamed_addr #4 align 2 {
entry:
  store ptr getelementptr inbounds ({ [8 x ptr], [4 x ptr] }, ptr @_ZTVN12_GLOBAL__N_123EngineParamTestTemplateINS_10TestParamsEEE, i64 0, i32 0, i64 2), ptr %this, align 8
  %add.ptr = getelementptr inbounds i8, ptr %this, i64 320
  store ptr getelementptr inbounds ({ [8 x ptr], [4 x ptr] }, ptr @_ZTVN12_GLOBAL__N_123EngineParamTestTemplateINS_10TestParamsEEE, i64 0, i32 1, i64 2), ptr %add.ptr, align 8
  %engine_ = getelementptr inbounds i8, ptr %this, i64 328
  %0 = load ptr, ptr %engine_, align 8
  %cmp.not.i = icmp eq ptr %0, null
  br i1 %cmp.not.i, label %_ZNSt10unique_ptrIN4absl12crc_internal15CrcMemcpyEngineESt14default_deleteIS2_EED2Ev.exit, label %_ZNKSt14default_deleteIN4absl12crc_internal15CrcMemcpyEngineEEclEPS2_.exit.i

_ZNKSt14default_deleteIN4absl12crc_internal15CrcMemcpyEngineEEclEPS2_.exit.i: ; preds = %entry
  %vtable.i.i = load ptr, ptr %0, align 8
  %vfn.i.i = getelementptr inbounds i8, ptr %vtable.i.i, i64 8
  %1 = load ptr, ptr %vfn.i.i, align 8
  tail call void %1(ptr noundef nonnull align 8 dereferenceable(8) %0) #26
  br label %_ZNSt10unique_ptrIN4absl12crc_internal15CrcMemcpyEngineESt14default_deleteIS2_EED2Ev.exit

_ZNSt10unique_ptrIN4absl12crc_internal15CrcMemcpyEngineESt14default_deleteIS2_EED2Ev.exit: ; preds = %entry, %_ZNKSt14default_deleteIN4absl12crc_internal15CrcMemcpyEngineEEclEPS2_.exit.i
  store ptr null, ptr %engine_, align 8
  store ptr getelementptr inbounds ({ [8 x ptr] }, ptr @_ZTVN12_GLOBAL__N_113CrcMemcpyTestILm4500EEE, i64 0, i32 0, i64 2), ptr %this, align 8
  %destination_.i = getelementptr inbounds i8, ptr %this, i64 24
  %2 = load ptr, ptr %destination_.i, align 8
  %cmp.not.i.i = icmp eq ptr %2, null
  br i1 %cmp.not.i.i, label %_ZNSt10unique_ptrIA_cSt14default_deleteIS0_EED2Ev.exit.i, label %_ZNKSt14default_deleteIA_cEclIcEENSt9enable_ifIXsr14is_convertibleIPA_T_PS0_EE5valueEvE4typeEPS4_.exit.i.i

_ZNKSt14default_deleteIA_cEclIcEENSt9enable_ifIXsr14is_convertibleIPA_T_PS0_EE5valueEvE4typeEPS4_.exit.i.i: ; preds = %_ZNSt10unique_ptrIN4absl12crc_internal15CrcMemcpyEngineESt14default_deleteIS2_EED2Ev.exit
  tail call void @_ZdaPv(ptr noundef nonnull %2) #30
  br label %_ZNSt10unique_ptrIA_cSt14default_deleteIS0_EED2Ev.exit.i

_ZNSt10unique_ptrIA_cSt14default_deleteIS0_EED2Ev.exit.i: ; preds = %_ZNKSt14default_deleteIA_cEclIcEENSt9enable_ifIXsr14is_convertibleIPA_T_PS0_EE5valueEvE4typeEPS4_.exit.i.i, %_ZNSt10unique_ptrIN4absl12crc_internal15CrcMemcpyEngineESt14default_deleteIS2_EED2Ev.exit
  store ptr null, ptr %destination_.i, align 8
  %source_.i = getelementptr inbounds i8, ptr %this, i64 16
  %3 = load ptr, ptr %source_.i, align 8
  %cmp.not.i1.i = icmp eq ptr %3, null
  br i1 %cmp.not.i1.i, label %_ZN12_GLOBAL__N_113CrcMemcpyTestILm4500EED2Ev.exit, label %_ZNKSt14default_deleteIA_cEclIcEENSt9enable_ifIXsr14is_convertibleIPA_T_PS0_EE5valueEvE4typeEPS4_.exit.i2.i

_ZNKSt14default_deleteIA_cEclIcEENSt9enable_ifIXsr14is_convertibleIPA_T_PS0_EE5valueEvE4typeEPS4_.exit.i2.i: ; preds = %_ZNSt10unique_ptrIA_cSt14default_deleteIS0_EED2Ev.exit.i
  tail call void @_ZdaPv(ptr noundef nonnull %3) #30
  br label %_ZN12_GLOBAL__N_113CrcMemcpyTestILm4500EED2Ev.exit

_ZN12_GLOBAL__N_113CrcMemcpyTestILm4500EED2Ev.exit: ; preds = %_ZNSt10unique_ptrIA_cSt14default_deleteIS0_EED2Ev.exit.i, %_ZNKSt14default_deleteIA_cEclIcEENSt9enable_ifIXsr14is_convertibleIPA_T_PS0_EE5valueEvE4typeEPS4_.exit.i2.i
  store ptr null, ptr %source_.i, align 8
  tail call void @_ZN7testing4TestD2Ev(ptr noundef nonnull align 8 dereferenceable(16) %this) #26
  ret void
}